Certificate:
    Data:
        Version: 3 (0x2)
        Serial Number:
            fd:91:04:9a:4d:4b:24:a3:d6:d9:26:58:5e:36:85:65
    Signature Algorithm: sha256WithRSAEncryption
        Issuer: C=US, ST=New York, L=Brooklyn, O=New York University, OU=Sounds of New York City, CN=file_access
        Validity
            Not Before: Mar 30 19:31:26 2018 GMT
            Not After : Jul 31 19:31:26 3017 GMT
        Subject: C=US, ST=New York, L=New York, O=NYU, CN=Ana Elisa
        Subject Public Key Info:
            Public Key Algorithm: rsaEncryption
                Public-Key: (2048 bit)
                Modulus:
                    00:b3:d5:8c:d4:f5:85:1d:7f:ff:e0:67:a9:36:e4:
                    ba:9a:d9:d0:fa:b0:69:de:7d:3b:5c:f7:7f:d3:77:
                    56:54:be:9f:36:d0:4d:11:8d:ea:82:a8:45:7a:b5:
                    7f:44:96:fd:96:56:6a:47:3b:4e:aa:8d:84:d2:7b:
                    e5:d1:85:88:3d:26:80:7c:9b:bd:41:f5:eb:64:a7:
                    fc:1d:46:0f:71:98:88:9a:14:1d:fc:72:ca:9a:35:
                    78:12:15:3b:e0:35:2a:34:55:af:04:e5:47:d3:5e:
                    05:42:54:17:b5:da:fa:65:4b:47:bd:f5:13:03:a6:
                    a1:a6:a2:ca:01:80:23:c0:58:63:ea:c7:13:65:1a:
                    42:4e:d4:54:c3:45:a3:b3:a3:82:d0:0d:6b:47:51:
                    ec:32:29:87:d9:37:3c:0e:80:78:07:b5:56:35:9b:
                    94:84:66:fd:a4:06:09:f1:62:33:70:4b:13:0f:50:
                    bf:b8:71:dc:c0:5f:9c:dc:40:b4:bf:24:70:83:4d:
                    fc:eb:ab:80:f6:15:1e:f0:c3:d5:b9:20:1b:f4:2c:
                    11:45:a3:c7:8b:b6:b6:eb:98:fa:fa:b3:1e:b5:40:
                    77:da:4e:8f:21:53:7f:5f:d6:08:0c:2c:40:bc:cf:
                    15:18:7d:ee:9b:ea:4f:df:e8:d5:ac:6c:38:13:57:
                    1c:25
                Exponent: 65537 (0x10001)
        X509v3 extensions:
            X509v3 Subject Key Identifier: 
                3A:D7:F6:E2:01:05:06:F9:CF:19:A0:9D:78:F5:88:87:94:A8:F1:E9
            X509v3 Authority Key Identifier: 
                keyid:F9:EE:7B:A6:94:A8:9D:CB:C5:9C:B6:CD:00:EF:5A:E1:28:8F:DD:52

            Netscape Cert Type: 
                SSL Client
            X509v3 Basic Constraints: 
                CA:FALSE
            X509v3 Key Usage: 
                Digital Signature, Key Encipherment
            X509v3 Extended Key Usage: 
                TLS Web Client Authentication
            X509v3 CRL Distribution Points: 

                Full Name:
                  URI:http://control-sonyc.engineering.nyu.edu/crl/file_access.crl

    Signature Algorithm: sha256WithRSAEncryption
         9c:17:f4:0a:f0:c1:55:f1:35:d7:d3:ca:67:0b:55:88:10:7b:
         bc:4f:d1:47:c4:1e:5d:d6:a6:0d:28:e0:12:b0:98:8e:05:03:
         c4:da:26:b3:99:3b:1c:0b:01:2d:14:97:a2:a6:f5:fa:cc:c3:
         ef:87:6f:6e:8c:1e:92:7b:97:80:5c:ed:3a:ae:96:eb:6a:11:
         d5:52:5b:bd:00:17:8c:0c:b6:6c:27:71:a4:c7:ab:6d:00:29:
         13:20:a0:98:c0:9c:73:02:90:c7:a9:34:1f:07:1d:31:e9:7e:
         5e:ae:90:d1:09:cd:6f:08:19:82:7e:a0:c4:d0:58:5c:69:9f:
         93:1b:53:7c:54:17:a7:aa:1b:5f:0e:a9:08:7a:42:f7:0b:03:
         61:b8:d8:1b:7c:3c:51:77:76:ec:05:53:97:0e:1b:b4:78:1f:
         96:59:14:6b:c0:f4:ec:d4:2f:8c:68:4c:03:a9:70:b8:6f:de:
         28:f5:18:d6:1a:09:be:bc:19:41:60:5c:91:ad:9f:cc:05:51:
         b4:56:f4:ac:9c:28:c9:af:44:3f:57:8d:78:f1:b6:57:47:99:
         47:29:fc:5c:51:30:a5:51:e2:e3:a5:38:32:4f:34:01:db:4c:
         ba:24:f6:b5:3c:3e:da:11:42:ea:f2:f6:59:75:9e:8b:58:a4:
         97:7c:61:21
-----BEGIN CERTIFICATE-----
MIIEPzCCAyegAwIBAgIRAP2RBJpNSySj1tkmWF42hWUwDQYJKoZIhvcNAQELBQAw
gYkxCzAJBgNVBAYTAlVTMREwDwYDVQQIEwhOZXcgWW9yazERMA8GA1UEBxMIQnJv
b2tseW4xHDAaBgNVBAoTE05ldyBZb3JrIFVuaXZlcnNpdHkxIDAeBgNVBAsTF1Nv
dW5kcyBvZiBOZXcgWW9yayBDaXR5MRQwEgYDVQQDFAtmaWxlX2FjY2VzczAgFw0x
ODAzMzAxOTMxMjZaGA8zMDE3MDczMTE5MzEyNlowVTELMAkGA1UEBhMCVVMxETAP
BgNVBAgMCE5ldyBZb3JrMREwDwYDVQQHDAhOZXcgWW9yazEMMAoGA1UECgwDTllV
MRIwEAYDVQQDDAlBbmEgRWxpc2EwggEiMA0GCSqGSIb3DQEBAQUAA4IBDwAwggEK
AoIBAQCz1YzU9YUdf//gZ6k25Lqa2dD6sGnefTtc93/Td1ZUvp820E0RjeqCqEV6
tX9Elv2WVmpHO06qjYTSe+XRhYg9JoB8m71B9etkp/wdRg9xmIiaFB38csqaNXgS
FTvgNSo0Va8E5UfTXgVCVBe12vplS0e99RMDpqGmosoBgCPAWGPqxxNlGkJO1FTD
RaOzo4LQDWtHUewyKYfZNzwOgHgHtVY1m5SEZv2kBgnxYjNwSxMPUL+4cdzAX5zc
QLS/JHCDTfzrq4D2FR7ww9W5IBv0LBFFo8eLtrbrmPr6sx61QHfaTo8hU39f1ggM
LEC8zxUYfe6b6k/f6NWsbDgTVxwlAgMBAAGjgdIwgc8wHQYDVR0OBBYEFDrX9uIB
BQb5zxmgnXj1iIeUqPHpMB8GA1UdIwQYMBaAFPnue6aUqJ3LxZy2zQDvWuEoj91S
MBEGCWCGSAGG+EIBAQQEAwIHgDAJBgNVHRMEAjAAMAsGA1UdDwQEAwIFoDATBgNV
HSUEDDAKBggrBgEFBQcDAjBNBgNVHR8ERjBEMEKgQKA+hjxodHRwOi8vY29udHJv
bC1zb255Yy5lbmdpbmVlcmluZy5ueXUuZWR1L2NybC9maWxlX2FjY2Vzcy5jcmww
DQYJKoZIhvcNAQELBQADggEBAJwX9ArwwVXxNdfTymcLVYgQe7xP0UfEHl3Wpg0o
4BKwmI4FA8TaJrOZOxwLAS0Ul6Km9frMw++Hb26MHpJ7l4Bc7TqulutqEdVSW70A
F4wMtmwncaTHq20AKRMgoJjAnHMCkMepNB8HHTHpfl6ukNEJzW8IGYJ+oMTQWFxp
n5MbU3xUF6eqG18OqQh6QvcLA2G42Bt8PFF3duwFU5cOG7R4H5ZZFGvA9OzUL4xo
TAOpcLhv3ij1GNYaCb68GUFgXJGtn8wFUbRW9KycKMmvRD9XjXjxtldHmUcp/FxR
MKVR4uOlODJPNAHbTLok9rU8PtoRQury9ll1notYpJd8YSE=
-----END CERTIFICATE-----
